; Function Attrs: mustprogress nofree norecurse nosync nounwind willreturn memory(read, inaccessiblemem: none) uwtable
define range(i64 -140737488355328, 140741783257088) i64 @inflateMark(ptr noundef readonly captures(address) %0) local_unnamed_addr #6 {
  %2 = icmp eq ptr %0, null
  br i1 %2, label %inflateStateCheck.exit.thread, label %3

3:                                                ; preds = %1
  %4 = getelementptr inbounds nuw i8, ptr %0, i64 64
  %5 = load ptr, ptr %4, align 8, !tbaa !3
  %6 = icmp eq ptr %5, null
  br i1 %6, label %inflateStateCheck.exit.thread, label %7

7:                                                ; preds = %3
  %8 = getelementptr inbounds nuw i8, ptr %0, i64 72
  %9 = load ptr, ptr %8, align 8, !tbaa !12
  %10 = icmp eq ptr %9, null
  br i1 %10, label %inflateStateCheck.exit.thread, label %11

11:                                               ; preds = %7
  %12 = getelementptr inbounds nuw i8, ptr %0, i64 56
  %13 = load ptr, ptr %12, align 8, !tbaa !13
  %14 = icmp eq ptr %13, null
  br i1 %14, label %inflateStateCheck.exit.thread, label %15

15:                                               ; preds = %11
  %16 = load ptr, ptr %13, align 8, !tbaa !14
  %.not.i = icmp eq ptr %16, %0
  br i1 %.not.i, label %inflateStateCheck.exit, label %inflateStateCheck.exit.thread

inflateStateCheck.exit:                           ; preds = %15
  %17 = getelementptr inbounds nuw i8, ptr %13, i64 8
  %18 = load i32, ptr %17, align 8, !tbaa !18
  %19 = add i32 %18, -16180
  %or.cond.i = icmp ult i32 %19, 32
  br i1 %or.cond.i, label %20, label %inflateStateCheck.exit.thread

20:                                               ; preds = %inflateStateCheck.exit
  %21 = getelementptr inbounds nuw i8, ptr %13, i64 7148
  %22 = load i32, ptr %21, align 4, !tbaa !34
  %23 = sext i32 %22 to i64
  %24 = shl nsw i64 %23, 16
  switch i32 %18, label %34 [
    i32 16195, label %25
    i32 16204, label %28
  ]

25:                                               ; preds = %20
  %26 = getelementptr inbounds nuw i8, ptr %13, i64 92
  %27 = load i32, ptr %26, align 4, !tbaa !62
  br label %34

28:                                               ; preds = %20
  %29 = getelementptr inbounds nuw i8, ptr %13, i64 7152
  %30 = load i32, ptr %29, align 8, !tbaa !92
  %31 = getelementptr inbounds nuw i8, ptr %13, i64 92
  %32 = load i32, ptr %31, align 4, !tbaa !62
  %33 = sub i32 %30, %32
  br label %34

34:                                               ; preds = %20, %28, %25
  %35 = phi i32 [ %27, %25 ], [ %33, %28 ], [ 0, %20 ]
  %36 = zext i32 %35 to i64
  %37 = add nsw i64 %24, %36
  br label %inflateStateCheck.exit.thread

inflateStateCheck.exit.thread:                    ; preds = %11, %15, %1, %3, %7, %inflateStateCheck.exit, %34
  %.0 = phi i64 [ %37, %34 ], [ -65536, %inflateStateCheck.exit ], [ -65536, %7 ], [ -65536, %3 ], [ -65536, %1 ], [ -65536, %15 ], [ -65536, %11 ]
  ret i64 %.0
}